target datalayout = "e-m:e-p270:32:32-p271:32:32-p272:64:64-i64:64-i128:128-f80:128-n8:16:32:64-S128"
target triple = "x86_64-pc-linux-gnu"

%struct.dt_lib_module_t = type { %struct.dt_action_t, ptr, ptr, ptr, ptr, ptr, ptr, ptr, ptr, ptr, ptr, ptr, ptr, ptr, ptr, ptr, ptr, ptr, ptr, ptr, ptr, ptr, ptr, ptr, ptr, ptr, ptr, ptr, ptr, ptr, ptr, [128 x i8], ptr, ptr, i32, ptr, ptr, ptr, i32 }
%struct.dt_action_t = type { i32, ptr, ptr, ptr, ptr, ptr }
%struct._GTypeInstance = type { ptr }
%struct._GtkDarktableExpander = type { %struct._GtkBox, i32, ptr, ptr, ptr, ptr, ptr }
%struct._GtkBox = type { %struct._GtkContainer, ptr }
%struct._GtkContainer = type { %struct._GtkWidget, ptr }
%struct._GtkWidget = type { %struct._GObject, ptr }
%struct._GObject = type { %struct._GTypeInstance, i32, ptr }

; Function Attrs: inlinehint nounwind uwtable
define internal ptr @DTGTK_EXPANDER(ptr noundef %0) #5 {
  %2 = alloca ptr, align 8
  store ptr %0, ptr %2, align 8, !tbaa !76
  %3 = load ptr, ptr %2, align 8, !tbaa !76
  %4 = call i64 @dtgtk_expander_get_type()
  %5 = call ptr @g_type_check_instance_cast(ptr noundef %3, i64 noundef %4)
  ret ptr %5
}

; Function Attrs: nounwind uwtable
define void @dt_lib_gui_set_label(ptr noundef %0, ptr noundef %1) #0 {
  %3 = alloca ptr, align 8
  %4 = alloca ptr, align 8
  %5 = alloca ptr, align 8
  store ptr %0, ptr %3, align 8, !tbaa !6
  store ptr %1, ptr %4, align 8, !tbaa !63
  %6 = load ptr, ptr %3, align 8, !tbaa !6
  %7 = getelementptr inbounds nuw %struct.dt_lib_module_t, ptr %6, i32 0, i32 33
  %8 = load ptr, ptr %7, align 8, !tbaa !107
  %9 = icmp ne ptr %8, null
  br i1 %9, label %11, label %10

10:                                               ; preds = %2
  br label %24

11:                                               ; preds = %2
  call void @llvm.lifetime.start.p0(i64 8, ptr %5) #12
  %12 = load ptr, ptr %3, align 8, !tbaa !6
  %13 = getelementptr inbounds nuw %struct.dt_lib_module_t, ptr %12, i32 0, i32 33
  %14 = load ptr, ptr %13, align 8, !tbaa !107
  %15 = call ptr @DTGTK_EXPANDER(ptr noundef %14)
  %16 = getelementptr inbounds nuw %struct._GtkDarktableExpander, ptr %15, i32 0, i32 3
  %17 = load ptr, ptr %16, align 8, !tbaa !171
  store ptr %17, ptr %5, align 8, !tbaa !111
  %18 = load ptr, ptr %5, align 8, !tbaa !111
  %19 = call i64 @gtk_box_get_type() #15
  %20 = call ptr @g_type_check_instance_cast(ptr noundef %18, i64 noundef %19)
  %21 = load ptr, ptr %4, align 8, !tbaa !63
  %22 = call ptr @gtk_label_new(ptr noundef %21)
  call void @gtk_box_set_center_widget(ptr noundef %20, ptr noundef %22)
  %23 = load ptr, ptr %5, align 8, !tbaa !111
  call void @gtk_widget_show_all(ptr noundef %23)
  call void @llvm.lifetime.end.p0(i64 8, ptr %5) #12
  br label %24

24:                                               ; preds = %11, %10
  ret void
}