; Function Attrs: nounwind uwtable
define void @dt_lib_gui_set_label(ptr noundef readonly captures(none) %0, ptr noundef %1) local_unnamed_addr #0 {
  %3 = getelementptr inbounds nuw i8, ptr %0, i64 424
  %4 = load ptr, ptr %3, align 8, !tbaa !86
  %.not = icmp eq ptr %4, null
  br i1 %.not, label %13, label %5

5:                                                ; preds = %2
  %6 = tail call i64 @dtgtk_expander_get_type() #19
  %7 = tail call ptr @g_type_check_instance_cast(ptr noundef nonnull %4, i64 noundef %6) #19
  %8 = getelementptr inbounds nuw i8, ptr %7, i64 64
  %9 = load ptr, ptr %8, align 8, !tbaa !144
  %10 = tail call i64 @gtk_box_get_type() #23
  %11 = tail call ptr @g_type_check_instance_cast(ptr noundef %9, i64 noundef %10) #19
  %12 = tail call ptr @gtk_label_new(ptr noundef %1) #19
  tail call void @gtk_box_set_center_widget(ptr noundef %11, ptr noundef %12) #19
  tail call void @gtk_widget_show_all(ptr noundef %9) #19
  br label %13

13:                                               ; preds = %2, %5
  ret void
}